target datalayout = "e-m:e-p270:32:32-p271:32:32-p272:64:64-i64:64-i128:128-f80:128-n8:16:32:64-S128"
target triple = "x86_64-pc-linux-gnu"

%struct.archive_read = type { %struct.archive, ptr, i32, i64, i64, %struct.archive_read_client, [16 x %struct.archive_read_filter_bidder], ptr, i32, i64, i32, i32, [16 x %struct.archive_format_descriptor], ptr, ptr, ptr, %struct.anon }
%struct.archive = type { i32, i32, ptr, i32, ptr, i32, i32, ptr, %struct.archive_string, ptr, i32, i32, ptr, ptr, i64, i64, i64, i8, i64 }
%struct.archive_string = type { ptr, i64, i64 }
%struct.archive_read_client = type { ptr, ptr, ptr, ptr, ptr, ptr, i32, i32, i64, ptr }
%struct.archive_read_filter_bidder = type { ptr, ptr, ptr }
%struct.archive_format_descriptor = type { ptr, ptr, ptr, ptr, ptr, ptr, ptr, ptr, ptr, ptr, ptr }
%struct.anon = type { ptr, ptr, i32, ptr, ptr }
%struct.rar5 = type { i32, i32, i32, i32, i64, i64, %struct.generic_header, %struct.main_header, %struct.comp_state, %struct.file_header, %struct.bit_reader, %struct.multivolume, %struct.compressed_block_header, i32, i32 }
%struct.generic_header = type { i8, i32, i32 }
%struct.main_header = type { i8, i32 }
%struct.comp_state = type { i8, i32, i32, i32, i64, ptr, ptr, ptr, i64, i64, i64, i64, i64, i64, i32, %struct.decode_table, %struct.decode_table, %struct.decode_table, %struct.decode_table, %struct.decode_table, %struct.cdeque, i64, i64, [4 x i32], [2 x %struct.data_ready] }
%struct.decode_table = type { i32, [16 x i32], [16 x i32], i32, [1024 x i8], [1024 x i16], [306 x i16] }
%struct.cdeque = type { i16, i16, i16, i16, ptr }
%struct.data_ready = type { i8, ptr, i64, i64 }
%struct.file_header = type { i64, i64, i64, i64, i8, i64, i64, i64, i32, i32, i32, [32 x i8], %struct.blake2sp_state__, i8, i64, i64, i64 }
%struct.blake2sp_state__ = type { [8 x [1 x %struct.blake2s_state__]], [1 x %struct.blake2s_state__], [512 x i8], i64, i64 }
%struct.blake2s_state__ = type { [8 x i32], [2 x i32], [2 x i32], [64 x i8], i64, i64, i8 }
%struct.bit_reader = type { i8, i32 }
%struct.multivolume = type { i32, ptr }
%struct.compressed_block_header = type { i8, i8 }

@.str.63 = private unnamed_addr constant [52 x i8] c"Sanity check error: output stream is not continuous\00", align 1
@.str.64 = private unnamed_addr constant [41 x i8] c"Error: premature end of data_ready stack\00", align 1

; Function Attrs: nounwind uwtable
define internal void @update_crc(ptr noundef %0, ptr noundef %1, i64 noundef %2) #0 {
  %4 = alloca ptr, align 8
  %5 = alloca ptr, align 8
  %6 = alloca i64, align 8
  %7 = alloca i32, align 4
  store ptr %0, ptr %4, align 8, !tbaa !11
  store ptr %1, ptr %5, align 8, !tbaa !33
  store i64 %2, ptr %6, align 8, !tbaa !42
  call void @llvm.lifetime.start.p0(i64 4, ptr %7) #11
  %8 = load ptr, ptr %4, align 8, !tbaa !11
  %9 = getelementptr inbounds nuw %struct.rar5, ptr %8, i32 0, i32 2
  %10 = load i32, ptr %9, align 8, !tbaa !44
  %11 = icmp ne i32 %10, 0
  br i1 %11, label %12, label %13

12:                                               ; preds = %3
  store i32 0, ptr %7, align 4, !tbaa !9
  br label %14

13:                                               ; preds = %3
  store i32 1, ptr %7, align 4, !tbaa !9
  br label %14

14:                                               ; preds = %13, %12
  %15 = load i32, ptr %7, align 4, !tbaa !9
  %16 = icmp ne i32 %15, 0
  br i1 %16, label %17, label %52

17:                                               ; preds = %14
  %18 = load ptr, ptr %4, align 8, !tbaa !11
  %19 = getelementptr inbounds nuw %struct.rar5, ptr %18, i32 0, i32 9
  %20 = getelementptr inbounds nuw %struct.file_header, ptr %19, i32 0, i32 9
  %21 = load i32, ptr %20, align 4, !tbaa !97
  %22 = icmp ugt i32 %21, 0
  br i1 %22, label %23, label %37

23:                                               ; preds = %17
  %24 = load ptr, ptr %4, align 8, !tbaa !11
  %25 = getelementptr inbounds nuw %struct.rar5, ptr %24, i32 0, i32 9
  %26 = getelementptr inbounds nuw %struct.file_header, ptr %25, i32 0, i32 10
  %27 = load i32, ptr %26, align 8, !tbaa !129
  %28 = zext i32 %27 to i64
  %29 = load ptr, ptr %5, align 8, !tbaa !33
  %30 = load i64, ptr %6, align 8, !tbaa !42
  %31 = trunc i64 %30 to i32
  %32 = call i64 @cm_zlib_crc32(i64 noundef %28, ptr noundef %29, i32 noundef %31)
  %33 = trunc i64 %32 to i32
  %34 = load ptr, ptr %4, align 8, !tbaa !11
  %35 = getelementptr inbounds nuw %struct.rar5, ptr %34, i32 0, i32 9
  %36 = getelementptr inbounds nuw %struct.file_header, ptr %35, i32 0, i32 10
  store i32 %33, ptr %36, align 8, !tbaa !129
  br label %37

37:                                               ; preds = %23, %17
  %38 = load ptr, ptr %4, align 8, !tbaa !11
  %39 = getelementptr inbounds nuw %struct.rar5, ptr %38, i32 0, i32 9
  %40 = getelementptr inbounds nuw %struct.file_header, ptr %39, i32 0, i32 13
  %41 = load i8, ptr %40, align 8, !tbaa !113
  %42 = sext i8 %41 to i32
  %43 = icmp sgt i32 %42, 0
  br i1 %43, label %44, label %51

44:                                               ; preds = %37
  %45 = load ptr, ptr %4, align 8, !tbaa !11
  %46 = getelementptr inbounds nuw %struct.rar5, ptr %45, i32 0, i32 9
  %47 = getelementptr inbounds nuw %struct.file_header, ptr %46, i32 0, i32 12
  %48 = load ptr, ptr %5, align 8, !tbaa !33
  %49 = load i64, ptr %6, align 8, !tbaa !42
  %50 = call i32 @blake2sp_update(ptr noundef %47, ptr noundef %48, i64 noundef %49)
  br label %51

51:                                               ; preds = %44, %37
  br label %52

52:                                               ; preds = %51, %14
  call void @llvm.lifetime.end.p0(i64 4, ptr %7) #11
  ret void
}

; Function Attrs: nounwind uwtable
define internal i32 @push_data_ready(ptr noundef %0, ptr noundef %1, ptr noundef %2, i64 noundef %3, i64 noundef %4) #0 {
  %6 = alloca i32, align 4
  %7 = alloca ptr, align 8
  %8 = alloca ptr, align 8
  %9 = alloca ptr, align 8
  %10 = alloca i64, align 8
  %11 = alloca i64, align 8
  %12 = alloca i32, align 4
  %13 = alloca i32, align 4
  %14 = alloca ptr, align 8
  store ptr %0, ptr %7, align 8, !tbaa !13
  store ptr %1, ptr %8, align 8, !tbaa !11
  store ptr %2, ptr %9, align 8, !tbaa !33
  store i64 %3, ptr %10, align 8, !tbaa !42
  store i64 %4, ptr %11, align 8, !tbaa !42
  call void @llvm.lifetime.start.p0(i64 4, ptr %12) #11
  %15 = load ptr, ptr %8, align 8, !tbaa !11
  %16 = getelementptr inbounds nuw %struct.rar5, ptr %15, i32 0, i32 2
  %17 = load i32, ptr %16, align 8, !tbaa !44
  %18 = icmp ne i32 %17, 0
  br i1 %18, label %19, label %20

19:                                               ; preds = %5
  store i32 0, ptr %6, align 4
  store i32 1, ptr %13, align 4
  br label %88

20:                                               ; preds = %5
  %21 = load i64, ptr %11, align 8, !tbaa !42
  %22 = load ptr, ptr %8, align 8, !tbaa !11
  %23 = getelementptr inbounds nuw %struct.rar5, ptr %22, i32 0, i32 9
  %24 = getelementptr inbounds nuw %struct.file_header, ptr %23, i32 0, i32 2
  %25 = load i64, ptr %24, align 8, !tbaa !169
  %26 = load ptr, ptr %8, align 8, !tbaa !11
  %27 = getelementptr inbounds nuw %struct.rar5, ptr %26, i32 0, i32 9
  %28 = getelementptr inbounds nuw %struct.file_header, ptr %27, i32 0, i32 3
  %29 = load i64, ptr %28, align 8, !tbaa !170
  %30 = add nsw i64 %25, %29
  %31 = icmp ne i64 %21, %30
  br i1 %31, label %32, label %35

32:                                               ; preds = %20
  %33 = load ptr, ptr %7, align 8, !tbaa !13
  %34 = getelementptr inbounds nuw %struct.archive_read, ptr %33, i32 0, i32 0
  call void (ptr, i32, ptr, ...) @archive_set_error(ptr noundef %34, i32 noundef 22, ptr noundef @.str.63)
  store i32 -30, ptr %6, align 4
  store i32 1, ptr %13, align 4
  br label %88

35:                                               ; preds = %20
  store i32 0, ptr %12, align 4, !tbaa !9
  br label %36

36:                                               ; preds = %82, %35
  %37 = load i32, ptr %12, align 4, !tbaa !9
  %38 = sext i32 %37 to i64
  %39 = icmp slt i64 %38, 2
  br i1 %39, label %40, label %85

40:                                               ; preds = %36
  call void @llvm.lifetime.start.p0(i64 8, ptr %14) #11
  %41 = load ptr, ptr %8, align 8, !tbaa !11
  %42 = getelementptr inbounds nuw %struct.rar5, ptr %41, i32 0, i32 8
  %43 = getelementptr inbounds nuw %struct.comp_state, ptr %42, i32 0, i32 24
  %44 = load i32, ptr %12, align 4, !tbaa !9
  %45 = sext i32 %44 to i64
  %46 = getelementptr inbounds [2 x %struct.data_ready], ptr %43, i64 0, i64 %45
  store ptr %46, ptr %14, align 8, !tbaa !120
  %47 = load ptr, ptr %14, align 8, !tbaa !120
  %48 = getelementptr inbounds nuw %struct.data_ready, ptr %47, i32 0, i32 0
  %49 = load i8, ptr %48, align 8, !tbaa !122
  %50 = icmp ne i8 %49, 0
  br i1 %50, label %78, label %51

51:                                               ; preds = %40
  %52 = load ptr, ptr %14, align 8, !tbaa !120
  %53 = getelementptr inbounds nuw %struct.data_ready, ptr %52, i32 0, i32 0
  store i8 1, ptr %53, align 8, !tbaa !122
  %54 = load ptr, ptr %9, align 8, !tbaa !33
  %55 = load ptr, ptr %14, align 8, !tbaa !120
  %56 = getelementptr inbounds nuw %struct.data_ready, ptr %55, i32 0, i32 1
  store ptr %54, ptr %56, align 8, !tbaa !124
  %57 = load i64, ptr %10, align 8, !tbaa !42
  %58 = load ptr, ptr %14, align 8, !tbaa !120
  %59 = getelementptr inbounds nuw %struct.data_ready, ptr %58, i32 0, i32 2
  store i64 %57, ptr %59, align 8, !tbaa !125
  %60 = load i64, ptr %11, align 8, !tbaa !42
  %61 = load ptr, ptr %14, align 8, !tbaa !120
  %62 = getelementptr inbounds nuw %struct.data_ready, ptr %61, i32 0, i32 3
  store i64 %60, ptr %62, align 8, !tbaa !126
  %63 = load i64, ptr %11, align 8, !tbaa !42
  %64 = load ptr, ptr %8, align 8, !tbaa !11
  %65 = getelementptr inbounds nuw %struct.rar5, ptr %64, i32 0, i32 9
  %66 = getelementptr inbounds nuw %struct.file_header, ptr %65, i32 0, i32 2
  store i64 %63, ptr %66, align 8, !tbaa !169
  %67 = load i64, ptr %10, align 8, !tbaa !42
  %68 = load ptr, ptr %8, align 8, !tbaa !11
  %69 = getelementptr inbounds nuw %struct.rar5, ptr %68, i32 0, i32 9
  %70 = getelementptr inbounds nuw %struct.file_header, ptr %69, i32 0, i32 3
  store i64 %67, ptr %70, align 8, !tbaa !170
  %71 = load ptr, ptr %8, align 8, !tbaa !11
  %72 = load ptr, ptr %14, align 8, !tbaa !120
  %73 = getelementptr inbounds nuw %struct.data_ready, ptr %72, i32 0, i32 1
  %74 = load ptr, ptr %73, align 8, !tbaa !124
  %75 = load ptr, ptr %14, align 8, !tbaa !120
  %76 = getelementptr inbounds nuw %struct.data_ready, ptr %75, i32 0, i32 2
  %77 = load i64, ptr %76, align 8, !tbaa !125
  call void @update_crc(ptr noundef %71, ptr noundef %74, i64 noundef %77)
  store i32 0, ptr %6, align 4
  store i32 1, ptr %13, align 4
  br label %79

78:                                               ; preds = %40
  store i32 0, ptr %13, align 4
  br label %79

79:                                               ; preds = %78, %51
  call void @llvm.lifetime.end.p0(i64 8, ptr %14) #11
  %80 = load i32, ptr %13, align 4
  switch i32 %80, label %88 [
    i32 0, label %81
  ]

81:                                               ; preds = %79
  br label %82

82:                                               ; preds = %81
  %83 = load i32, ptr %12, align 4, !tbaa !9
  %84 = add nsw i32 %83, 1
  store i32 %84, ptr %12, align 4, !tbaa !9
  br label %36, !llvm.loop !171

85:                                               ; preds = %36
  %86 = load ptr, ptr %7, align 8, !tbaa !13
  %87 = getelementptr inbounds nuw %struct.archive_read, ptr %86, i32 0, i32 0
  call void (ptr, i32, ptr, ...) @archive_set_error(ptr noundef %87, i32 noundef 22, ptr noundef @.str.64)
  store i32 -30, ptr %6, align 4
  store i32 1, ptr %13, align 4
  br label %88

88:                                               ; preds = %85, %79, %32, %19
  call void @llvm.lifetime.end.p0(i64 4, ptr %12) #11
  %89 = load i32, ptr %6, align 4
  ret i32 %89
}