; Function Attrs: nounwind uwtable
define internal fastcc range(i32 -30, 1) i32 @push_data_ready(ptr noundef %0, ptr noundef %1, ptr noundef %2, i64 noundef %3, i64 noundef %4) unnamed_addr #0 {
  %6 = getelementptr inbounds nuw i8, ptr %1, i64 8
  %7 = load i32, ptr %6, align 8, !tbaa !56
  %.not = icmp eq i32 %7, 0
  br i1 %.not, label %8, label %update_crc.exit

8:                                                ; preds = %5
  %9 = getelementptr inbounds nuw i8, ptr %1, i64 19384
  %10 = load i64, ptr %9, align 8, !tbaa !133
  %11 = getelementptr inbounds nuw i8, ptr %1, i64 19392
  %12 = load i64, ptr %11, align 8, !tbaa !134
  %13 = add nsw i64 %12, %10
  %.not30 = icmp eq i64 %4, %13
  br i1 %.not30, label %.preheader, label %15

.preheader:                                       ; preds = %8
  %14 = getelementptr inbounds nuw i8, ptr %1, i64 19304
  br label %.critedge

15:                                               ; preds = %8
  tail call void (ptr, i32, ptr, ...) @archive_set_error(ptr noundef %0, i32 noundef 22, ptr noundef nonnull @.str.63) #15
  br label %update_crc.exit

16:                                               ; preds = %.critedge
  br i1 %17, label %.critedge, label %40, !llvm.loop !135

.critedge:                                        ; preds = %.preheader, %16
  %17 = phi i1 [ true, %.preheader ], [ false, %16 ]
  %indvars.iv = phi i64 [ 0, %.preheader ], [ 1, %16 ]
  %18 = getelementptr inbounds nuw [2 x %struct.data_ready], ptr %14, i64 0, i64 %indvars.iv
  %19 = load i8, ptr %18, align 8, !tbaa !60
  %.not31.not = icmp eq i8 %19, 0
  br i1 %.not31.not, label %20, label %16

20:                                               ; preds = %.critedge
  store i8 1, ptr %18, align 8, !tbaa !60
  %21 = getelementptr inbounds nuw i8, ptr %18, i64 8
  store ptr %2, ptr %21, align 8, !tbaa !62
  %22 = getelementptr inbounds nuw i8, ptr %18, i64 16
  store i64 %3, ptr %22, align 8, !tbaa !64
  %23 = getelementptr inbounds nuw i8, ptr %18, i64 24
  store i64 %4, ptr %23, align 8, !tbaa !65
  store i64 %4, ptr %9, align 8, !tbaa !133
  store i64 %3, ptr %11, align 8, !tbaa !134
  %24 = getelementptr inbounds nuw i8, ptr %1, i64 19436
  %25 = load i32, ptr %24, align 4, !tbaa !90
  %.not.i = icmp eq i32 %25, 0
  br i1 %.not.i, label %33, label %26

26:                                               ; preds = %20
  %27 = getelementptr inbounds nuw i8, ptr %1, i64 19440
  %28 = load i32, ptr %27, align 8, !tbaa !99
  %29 = zext i32 %28 to i64
  %30 = trunc i64 %3 to i32
  %31 = tail call i64 @cm_zlib_crc32(i64 noundef %29, ptr noundef %2, i32 noundef %30) #15
  %32 = trunc i64 %31 to i32
  store i32 %32, ptr %27, align 8, !tbaa !99
  br label %33

33:                                               ; preds = %26, %20
  %34 = getelementptr inbounds nuw i8, ptr %1, i64 21232
  %35 = load i8, ptr %34, align 8, !tbaa !92
  %36 = icmp sgt i8 %35, 0
  br i1 %36, label %37, label %update_crc.exit

37:                                               ; preds = %33
  %38 = getelementptr inbounds nuw i8, ptr %1, i64 19480
  %39 = tail call i32 @blake2sp_update(ptr noundef nonnull %38, ptr noundef %2, i64 noundef %3) #15
  br label %update_crc.exit

40:                                               ; preds = %16
  tail call void (ptr, i32, ptr, ...) @archive_set_error(ptr noundef %0, i32 noundef 22, ptr noundef nonnull @.str.64) #15
  br label %update_crc.exit

update_crc.exit:                                  ; preds = %37, %33, %5, %40, %15
  %.0 = phi i32 [ -30, %15 ], [ -30, %40 ], [ 0, %5 ], [ 0, %33 ], [ 0, %37 ]
  ret i32 %.0
}